target datalayout = "e-m:e-p270:32:32-p271:32:32-p272:64:64-i64:64-i128:128-f80:128-n8:16:32:64-S128"
target triple = "x86_64-pc-linux-gnu"

%struct.t_order = type { i32, float }

; Function Attrs: mustprogress nounwind uwtable
define internal noundef i32 @_ZL5ocompPKvS0_(ptr noundef %0, ptr noundef %1) #4 {
  %3 = alloca i32, align 4
  %4 = alloca ptr, align 8
  %5 = alloca ptr, align 8
  %6 = alloca ptr, align 8
  %7 = alloca ptr, align 8
  %8 = alloca i32, align 4
  store ptr %0, ptr %4, align 8, !tbaa !77
  store ptr %1, ptr %5, align 8, !tbaa !77
  call void @llvm.lifetime.start.p0(i64 8, ptr %6) #14
  call void @llvm.lifetime.start.p0(i64 8, ptr %7) #14
  %9 = load ptr, ptr %4, align 8, !tbaa !77
  store ptr %9, ptr %6, align 8, !tbaa !77
  %10 = load ptr, ptr %5, align 8, !tbaa !77
  store ptr %10, ptr %7, align 8, !tbaa !77
  %11 = load ptr, ptr %6, align 8, !tbaa !77
  %12 = getelementptr inbounds nuw %struct.t_order, ptr %11, i32 0, i32 1
  %13 = load float, ptr %12, align 4, !tbaa !80
  %14 = load ptr, ptr %7, align 8, !tbaa !77
  %15 = getelementptr inbounds nuw %struct.t_order, ptr %14, i32 0, i32 1
  %16 = load float, ptr %15, align 4, !tbaa !80
  %17 = fcmp olt float %13, %16
  br i1 %17, label %18, label %19

18:                                               ; preds = %2
  store i32 -1, ptr %3, align 4
  store i32 1, ptr %8, align 4
  br label %20

19:                                               ; preds = %2
  store i32 1, ptr %3, align 4
  store i32 1, ptr %8, align 4
  br label %20

20:                                               ; preds = %19, %18
  call void @llvm.lifetime.end.p0(i64 8, ptr %7) #14
  call void @llvm.lifetime.end.p0(i64 8, ptr %6) #14
  %21 = load i32, ptr %3, align 4
  ret i32 %21
}