; Function Attrs: mustprogress nofree norecurse nosync nounwind willreturn memory(argmem: read) uwtable
define internal noundef range(i32 -1, 2) i32 @_ZL5ocompPKvS0_(ptr noundef readonly captures(none) %0, ptr noundef readonly captures(none) %1) #10 {
  %3 = getelementptr inbounds nuw i8, ptr %0, i64 4
  %4 = load float, ptr %3, align 4, !tbaa !81
  %5 = getelementptr inbounds nuw i8, ptr %1, i64 4
  %6 = load float, ptr %5, align 4, !tbaa !81
  %7 = fcmp olt float %4, %6
  %. = select i1 %7, i32 -1, i32 1
  ret i32 %.
}